; Function Attrs: mustprogress nounwind uwtable
define void @_ZN7glslang10TPpContext17missingEndifCheckEv(ptr nocapture noundef nonnull readonly align 8 dereferenceable(969) %0) local_unnamed_addr #0 align 2 {
  %2 = getelementptr inbounds i8, ptr %0, i64 312
  %3 = load i32, ptr %2, align 8
  %4 = icmp sgt i32 %3, 0
  br i1 %4, label %5, label %32

5:                                                ; preds = %1
  %6 = getelementptr inbounds i8, ptr %0, i64 256
  %7 = load ptr, ptr %6, align 8
  %8 = getelementptr inbounds i8, ptr %7, i64 216
  %9 = load ptr, ptr %8, align 8
  %10 = getelementptr inbounds i8, ptr %9, i64 88
  %11 = load i8, ptr %10, align 8
  %12 = trunc i8 %11 to i1
  br i1 %12, label %13, label %15

13:                                               ; preds = %5
  %14 = getelementptr inbounds i8, ptr %9, i64 64
  br label %_ZNK7glslang14TParseVersions13getCurrentLocEv.exit

15:                                               ; preds = %5
  %16 = getelementptr inbounds i8, ptr %9, i64 48
  %17 = load ptr, ptr %16, align 8
  %18 = getelementptr inbounds i8, ptr %9, i64 32
  %19 = getelementptr inbounds i8, ptr %9, i64 8
  %20 = load i32, ptr %19, align 8
  %21 = getelementptr inbounds i8, ptr %9, i64 60
  %22 = load i32, ptr %21, align 4
  %23 = xor i32 %22, -1
  %24 = add i32 %20, %23
  %25 = load i32, ptr %18, align 4
  %26 = tail call i32 @llvm.smin.i32(i32 %24, i32 %25)
  %.sroa.speculated.i.i = tail call i32 @llvm.smax.i32(i32 %26, i32 0)
  %27 = zext nneg i32 %.sroa.speculated.i.i to i64
  %28 = getelementptr inbounds %"struct.glslang::TSourceLoc", ptr %17, i64 %27
  br label %_ZNK7glslang14TParseVersions13getCurrentLocEv.exit

_ZNK7glslang14TParseVersions13getCurrentLocEv.exit: ; preds = %13, %15
  %.0.i.i = phi ptr [ %14, %13 ], [ %28, %15 ]
  %29 = load ptr, ptr %7, align 8
  %30 = getelementptr inbounds i8, ptr %29, i64 360
  %31 = load ptr, ptr %30, align 8
  tail call void (ptr, ptr, ptr, ptr, ptr, ...) %31(ptr noundef nonnull align 8 dereferenceable(1280) %7, ptr noundef nonnull align 8 dereferenceable(24) %.0.i.i, ptr noundef nonnull @.str.59, ptr noundef nonnull @.str.2, ptr noundef nonnull @.str.2) #13
  br label %32

32:                                               ; preds = %_ZNK7glslang14TParseVersions13getCurrentLocEv.exit, %1
  ret void
}